target datalayout = "e-m:e-p270:32:32-p271:32:32-p272:64:64-i64:64-i128:128-f80:128-n8:16:32:64-S128"
target triple = "x86_64-pc-linux-gnu"

%"class.llvm::Register" = type { i32 }
%"class.llvm::MachineInstr" = type <{ %"class.llvm::ilist_node_with_parent", ptr, ptr, ptr, [3 x i8], %"class.llvm::ArrayRecycler<llvm::MachineOperand>::Capacity", i32, %"class.llvm::PointerSumType", %"class.llvm::DebugLoc", i32, i16, [2 x i8] }>
%"class.llvm::ilist_node_with_parent" = type { %"class.llvm::ilist_node" }
%"class.llvm::ilist_node" = type { %"class.llvm::ilist_node_impl" }
%"class.llvm::ilist_node_impl" = type { %"class.llvm::ilist_node_base" }
%"class.llvm::ilist_node_base" = type { %"class.llvm::ilist_detail::node_base_prevnext" }
%"class.llvm::ilist_detail::node_base_prevnext" = type { %"class.llvm::PointerIntPair", ptr }
%"class.llvm::PointerIntPair" = type { %"struct.llvm::detail::PunnedPointer" }
%"struct.llvm::detail::PunnedPointer" = type { [8 x i8] }
%"class.llvm::ArrayRecycler<llvm::MachineOperand>::Capacity" = type { i8 }
%"class.llvm::PointerSumType" = type { %"union.llvm::PointerSumType<llvm::MachineInstr::ExtraInfoInlineKinds, llvm::PointerSumTypeMember<0, llvm::MachineMemOperand *>, llvm::PointerSumTypeMember<1, llvm::MCSymbol *>, llvm::PointerSumTypeMember<2, llvm::MCSymbol *>, llvm::PointerSumTypeMember<3, llvm::MachineInstr::ExtraInfo *>>::StorageT" }
%"union.llvm::PointerSumType<llvm::MachineInstr::ExtraInfoInlineKinds, llvm::PointerSumTypeMember<0, llvm::MachineMemOperand *>, llvm::PointerSumTypeMember<1, llvm::MCSymbol *>, llvm::PointerSumTypeMember<2, llvm::MCSymbol *>, llvm::PointerSumTypeMember<3, llvm::MachineInstr::ExtraInfo *>>::StorageT" = type { i64 }
%"class.llvm::DebugLoc" = type { %"class.llvm::TypedTrackingMDRef" }
%"class.llvm::TypedTrackingMDRef" = type { %"class.llvm::TrackingMDRef" }
%"class.llvm::TrackingMDRef" = type { ptr }
%"class.llvm::MachineOperand" = type { i32, %union.anon.285, ptr, %"union.llvm::MachineOperand::ContentsUnion" }
%union.anon.285 = type { i32 }
%"union.llvm::MachineOperand::ContentsUnion" = type { %"class.llvm::ArrayRef.286" }
%"class.llvm::ArrayRef.286" = type { ptr, i64 }
%"struct.llvm::ExtAddrMode" = type <{ %"class.llvm::Register", %"class.llvm::Register", i64, i64, i32, [4 x i8] }>
%class.anon.514 = type { ptr, ptr, ptr, ptr, ptr }

; Function Attrs: mustprogress nounwind uwtable
define linkonce_odr hidden noundef i32 @_ZN4llvm6detail19LeadingZerosCounterImLm8EE5countEm(i64 noundef %0) #0 comdat align 2 {
  %2 = alloca i32, align 4
  %3 = alloca i64, align 8
  store i64 %0, ptr %3, align 8
  %4 = load i64, ptr %3, align 8
  %5 = icmp eq i64 %4, 0
  br i1 %5, label %6, label %7

6:                                                ; preds = %1
  store i32 64, ptr %2, align 4
  br label %11

7:                                                ; preds = %1
  %8 = load i64, ptr %3, align 8
  %9 = call i64 @llvm.ctlz.i64(i64 %8, i1 true)
  %10 = trunc i64 %9 to i32
  store i32 %10, ptr %2, align 4
  br label %11

11:                                               ; preds = %7, %6
  %12 = load i32, ptr %2, align 4
  ret i32 %12
}

; Function Attrs: mustprogress nounwind uwtable
define linkonce_odr noundef i32 @_ZN4llvm11countl_zeroImEEiT_(i64 noundef %0) #0 comdat {
  %2 = alloca i64, align 8
  store i64 %0, ptr %2, align 8
  %3 = load i64, ptr %2, align 8
  %4 = call noundef i32 @_ZN4llvm6detail19LeadingZerosCounterImLm8EE5countEm(i64 noundef %3)
  ret i32 %4
}

; Function Attrs: mustprogress nounwind uwtable
define linkonce_odr hidden void @_ZN4llvm8RegisterC2Ej(ptr noundef nonnull align 4 dereferenceable(4) %0, i32 noundef %1) unnamed_addr #0 comdat align 2 {
  %3 = alloca ptr, align 8
  %4 = alloca i32, align 4
  store ptr %0, ptr %3, align 8
  store i32 %1, ptr %4, align 4
  %5 = load ptr, ptr %3, align 8
  %6 = getelementptr inbounds nuw %"class.llvm::Register", ptr %5, i32 0, i32 0
  %7 = load i32, ptr %4, align 4
  store i32 %7, ptr %6, align 4
  ret void
}

; Function Attrs: mustprogress nounwind uwtable
define linkonce_odr hidden noundef i32 @_ZN4llvm7Log2_64Em(i64 noundef %0) #0 comdat {
  %2 = alloca i64, align 8
  store i64 %0, ptr %2, align 8
  %3 = load i64, ptr %2, align 8
  %4 = call noundef i32 @_ZN4llvm11countl_zeroImEEiT_(i64 noundef %3)
  %5 = sub nsw i32 63, %4
  ret i32 %5
}

; Function Attrs: mustprogress nounwind uwtable
define linkonce_odr hidden noundef zeroext i1 @_ZN4llvm5isIntILj9EEEbl(i64 noundef %0) #0 comdat {
  %2 = alloca i64, align 8
  store i64 %0, ptr %2, align 8
  %3 = load i64, ptr %2, align 8
  %4 = icmp sle i64 -256, %3
  br i1 %4, label %5, label %8

5:                                                ; preds = %1
  %6 = load i64, ptr %2, align 8
  %7 = icmp slt i64 %6, 256
  br label %8

8:                                                ; preds = %5, %1
  %9 = phi i1 [ false, %1 ], [ %7, %5 ]
  ret i1 %9
}

; Function Attrs: mustprogress nounwind uwtable
define linkonce_odr hidden i32 @_ZNK4llvm14MachineOperand6getRegEv(ptr noundef nonnull align 8 dereferenceable(32) %0) #0 comdat align 2 {
  %2 = alloca %"class.llvm::Register", align 4
  %3 = alloca ptr, align 8
  store ptr %0, ptr %3, align 8
  %4 = load ptr, ptr %3, align 8
  %5 = getelementptr inbounds nuw %"class.llvm::MachineOperand", ptr %4, i32 0, i32 1
  %6 = load i32, ptr %5, align 4
  call void @_ZN4llvm8RegisterC2Ej(ptr noundef nonnull align 4 dereferenceable(4) %2, i32 noundef %6)
  %7 = getelementptr inbounds nuw %"class.llvm::Register", ptr %2, i32 0, i32 0
  %8 = load i32, ptr %7, align 4
  ret i32 %8
}

; Function Attrs: mustprogress nounwind uwtable
define dso_local noundef zeroext i1 @_ZNK4llvm16AArch64InstrInfo21isLegalAddressingModeEjlj(ptr noundef nonnull align 8 dereferenceable(408) %0, i32 noundef %1, i64 noundef %2, i32 noundef %3) #0 align 2 {
  %5 = alloca i1, align 1
  %6 = alloca ptr, align 8
  %7 = alloca i32, align 4
  %8 = alloca i64, align 8
  %9 = alloca i32, align 4
  %10 = alloca i32, align 4
  store ptr %0, ptr %6, align 8
  store i32 %1, ptr %7, align 4
  store i64 %2, ptr %8, align 8
  store i32 %3, ptr %9, align 4
  %11 = load i64, ptr %8, align 8
  %12 = icmp ne i64 %11, 0
  br i1 %12, label %13, label %17

13:                                               ; preds = %4
  %14 = load i32, ptr %9, align 4
  %15 = icmp ne i32 %14, 0
  br i1 %15, label %16, label %17

16:                                               ; preds = %13
  store i1 false, ptr %5, align 1
  br label %65

17:                                               ; preds = %13, %4
  %18 = load i32, ptr %9, align 4
  %19 = icmp ne i32 %18, 0
  br i1 %19, label %51, label %20

20:                                               ; preds = %17
  %21 = load i64, ptr %8, align 8
  %22 = call noundef zeroext i1 @_ZN4llvm5isIntILj9EEEbl(i64 noundef %21)
  br i1 %22, label %23, label %24

23:                                               ; preds = %20
  store i1 true, ptr %5, align 1
  br label %65

24:                                               ; preds = %20
  %25 = load i32, ptr %7, align 4
  %26 = zext i32 %25 to i64
  %27 = call noundef i32 @_ZN4llvm7Log2_64Em(i64 noundef %26)
  store i32 %27, ptr %10, align 4
  %28 = load i32, ptr %7, align 4
  %29 = icmp ne i32 %28, 0
  br i1 %29, label %30, label %50

30:                                               ; preds = %24
  %31 = load i64, ptr %8, align 8
  %32 = icmp sgt i64 %31, 0
  br i1 %32, label %33, label %50

33:                                               ; preds = %30
  %34 = load i64, ptr %8, align 8
  %35 = load i32, ptr %7, align 4
  %36 = zext i32 %35 to i64
  %37 = sdiv i64 %34, %36
  %38 = icmp sle i64 %37, 4095
  br i1 %38, label %39, label %50

39:                                               ; preds = %33
  %40 = load i64, ptr %8, align 8
  %41 = load i32, ptr %10, align 4
  %42 = zext i32 %41 to i64
  %43 = ashr i64 %40, %42
  %44 = load i32, ptr %10, align 4
  %45 = zext i32 %44 to i64
  %46 = shl i64 %43, %45
  %47 = load i64, ptr %8, align 8
  %48 = icmp eq i64 %46, %47
  br i1 %48, label %49, label %50

49:                                               ; preds = %39
  store i1 true, ptr %5, align 1
  br label %65

50:                                               ; preds = %39, %33, %30, %24
  store i1 false, ptr %5, align 1
  br label %65

51:                                               ; preds = %17
  %52 = load i32, ptr %9, align 4
  %53 = icmp eq i32 %52, 1
  br i1 %53, label %63, label %54

54:                                               ; preds = %51
  %55 = load i32, ptr %9, align 4
  %56 = icmp ugt i32 %55, 0
  br i1 %56, label %57, label %61

57:                                               ; preds = %54
  %58 = load i32, ptr %9, align 4
  %59 = load i32, ptr %7, align 4
  %60 = icmp eq i32 %58, %59
  br label %61

61:                                               ; preds = %57, %54
  %62 = phi i1 [ false, %54 ], [ %60, %57 ]
  br label %63

63:                                               ; preds = %61, %51
  %64 = phi i1 [ true, %51 ], [ %62, %61 ]
  store i1 %64, ptr %5, align 1
  br label %65

65:                                               ; preds = %63, %50, %49, %23, %16
  %66 = load i1, ptr %5, align 1
  ret i1 %66
}

; Function Attrs: mustprogress nounwind uwtable
define linkonce_odr hidden noundef i64 @_ZNK4llvm14MachineOperand6getImmEv(ptr noundef nonnull align 8 dereferenceable(32) %0) #0 comdat align 2 {
  %2 = alloca ptr, align 8
  store ptr %0, ptr %2, align 8
  %3 = load ptr, ptr %2, align 8
  %4 = getelementptr inbounds nuw %"class.llvm::MachineOperand", ptr %3, i32 0, i32 3
  %5 = load i64, ptr %4, align 8
  ret i64 %5
}

; Function Attrs: mustprogress nounwind uwtable
define linkonce_odr hidden noundef nonnull align 8 dereferenceable(32) ptr @_ZNK4llvm12MachineInstr10getOperandEj(ptr noundef nonnull align 8 dereferenceable(70) %0, i32 noundef %1) #0 comdat align 2 {
  %3 = alloca ptr, align 8
  %4 = alloca i32, align 4
  store ptr %0, ptr %3, align 8
  store i32 %1, ptr %4, align 4
  %5 = load ptr, ptr %3, align 8
  %6 = getelementptr inbounds nuw %"class.llvm::MachineInstr", ptr %5, i32 0, i32 3
  %7 = load ptr, ptr %6, align 8
  %8 = load i32, ptr %4, align 4
  %9 = zext i32 %8 to i64
  %10 = getelementptr inbounds %"class.llvm::MachineOperand", ptr %7, i64 %9
  ret ptr %10
}

; Function Attrs: mustprogress nounwind uwtable
define internal noundef zeroext i1 @"_ZZNK4llvm16AArch64InstrInfo19canFoldIntoAddrModeERKNS_12MachineInstrENS_8RegisterES3_RNS_11ExtAddrModeEENK3$_2clElNS5_7FormulaE"(ptr noundef nonnull align 8 dereferenceable(40) %0, i64 noundef %1, i32 noundef %2) #0 align 2 {
  %4 = alloca i1, align 1
  %5 = alloca ptr, align 8
  %6 = alloca i64, align 8
  %7 = alloca i32, align 4
  %8 = alloca %"class.llvm::Register", align 4
  %9 = alloca %"class.llvm::Register", align 4
  store ptr %0, ptr %5, align 8
  store i64 %1, ptr %6, align 8
  store i32 %2, ptr %7, align 4
  %10 = load ptr, ptr %5, align 8
  %11 = getelementptr inbounds nuw %class.anon.514, ptr %10, i32 0, i32 1
  %12 = load ptr, ptr %11, align 8
  %13 = getelementptr inbounds nuw %class.anon.514, ptr %10, i32 0, i32 0
  %14 = load ptr, ptr %13, align 8
  %15 = call noundef nonnull align 8 dereferenceable(32) ptr @_ZNK4llvm12MachineInstr10getOperandEj(ptr noundef nonnull align 8 dereferenceable(70) %14, i32 noundef 2)
  %16 = call noundef i64 @_ZNK4llvm14MachineOperand6getImmEv(ptr noundef nonnull align 8 dereferenceable(32) %15)
  %17 = icmp ne i64 %16, 0
  br i1 %17, label %18, label %19

18:                                               ; preds = %3
  store i1 false, ptr %4, align 1
  br label %55

19:                                               ; preds = %3
  %20 = getelementptr inbounds nuw %class.anon.514, ptr %10, i32 0, i32 2
  %21 = load ptr, ptr %20, align 8
  %22 = load i32, ptr %21, align 4
  %23 = load i64, ptr %6, align 8
  %24 = trunc i64 %23 to i32
  %25 = call noundef zeroext i1 @_ZNK4llvm16AArch64InstrInfo21isLegalAddressingModeEjlj(ptr noundef nonnull align 8 dereferenceable(408) %12, i32 noundef %22, i64 noundef 0, i32 noundef %24)
  br i1 %25, label %27, label %26

26:                                               ; preds = %19
  store i1 false, ptr %4, align 1
  br label %55

27:                                               ; preds = %19
  %28 = getelementptr inbounds nuw %class.anon.514, ptr %10, i32 0, i32 4
  %29 = load ptr, ptr %28, align 8
  %30 = call noundef nonnull align 8 dereferenceable(32) ptr @_ZNK4llvm12MachineInstr10getOperandEj(ptr noundef nonnull align 8 dereferenceable(70) %29, i32 noundef 1)
  %31 = call i32 @_ZNK4llvm14MachineOperand6getRegEv(ptr noundef nonnull align 8 dereferenceable(32) %30)
  %32 = getelementptr inbounds nuw %"class.llvm::Register", ptr %8, i32 0, i32 0
  store i32 %31, ptr %32, align 4
  %33 = getelementptr inbounds nuw %class.anon.514, ptr %10, i32 0, i32 3
  %34 = load ptr, ptr %33, align 8
  %35 = getelementptr inbounds nuw %"struct.llvm::ExtAddrMode", ptr %34, i32 0, i32 0
  call void @llvm.memcpy.p0.p0.i64(ptr align 8 %35, ptr align 4 %8, i64 4, i1 false)
  %36 = getelementptr inbounds nuw %class.anon.514, ptr %10, i32 0, i32 4
  %37 = load ptr, ptr %36, align 8
  %38 = call noundef nonnull align 8 dereferenceable(32) ptr @_ZNK4llvm12MachineInstr10getOperandEj(ptr noundef nonnull align 8 dereferenceable(70) %37, i32 noundef 2)
  %39 = call i32 @_ZNK4llvm14MachineOperand6getRegEv(ptr noundef nonnull align 8 dereferenceable(32) %38)
  %40 = getelementptr inbounds nuw %"class.llvm::Register", ptr %9, i32 0, i32 0
  store i32 %39, ptr %40, align 4
  %41 = getelementptr inbounds nuw %class.anon.514, ptr %10, i32 0, i32 3
  %42 = load ptr, ptr %41, align 8
  %43 = getelementptr inbounds nuw %"struct.llvm::ExtAddrMode", ptr %42, i32 0, i32 1
  call void @llvm.memcpy.p0.p0.i64(ptr align 4 %43, ptr align 4 %9, i64 4, i1 false)
  %44 = load i64, ptr %6, align 8
  %45 = getelementptr inbounds nuw %class.anon.514, ptr %10, i32 0, i32 3
  %46 = load ptr, ptr %45, align 8
  %47 = getelementptr inbounds nuw %"struct.llvm::ExtAddrMode", ptr %46, i32 0, i32 2
  store i64 %44, ptr %47, align 8
  %48 = getelementptr inbounds nuw %class.anon.514, ptr %10, i32 0, i32 3
  %49 = load ptr, ptr %48, align 8
  %50 = getelementptr inbounds nuw %"struct.llvm::ExtAddrMode", ptr %49, i32 0, i32 3
  store i64 0, ptr %50, align 8
  %51 = load i32, ptr %7, align 4
  %52 = getelementptr inbounds nuw %class.anon.514, ptr %10, i32 0, i32 3
  %53 = load ptr, ptr %52, align 8
  %54 = getelementptr inbounds nuw %"struct.llvm::ExtAddrMode", ptr %53, i32 0, i32 4
  store i32 %51, ptr %54, align 8
  store i1 true, ptr %4, align 1
  br label %55

55:                                               ; preds = %27, %26, %18
  %56 = load i1, ptr %4, align 1
  ret i1 %56
}