; Function Attrs: mustprogress nofree norecurse nosync nounwind willreturn memory(readwrite, inaccessiblemem: none) uwtable
define internal fastcc noundef zeroext i1 @"_ZZNK4llvm16AArch64InstrInfo19canFoldIntoAddrModeERKNS_12MachineInstrENS_8RegisterES3_RNS_11ExtAddrModeEENK3$_2clElNS5_7FormulaE"(ptr nocapture noundef nonnull readonly align 8 dereferenceable(40) %0, i64 noundef %1, i32 noundef %2) unnamed_addr #8 align 2 {
  %4 = load ptr, ptr %0, align 8
  %5 = getelementptr inbounds nuw i8, ptr %4, i64 32
  %6 = load ptr, ptr %5, align 8
  %7 = getelementptr inbounds i8, ptr %6, i64 80
  %8 = load i64, ptr %7, align 8
  %.not = icmp eq i64 %8, 0
  br i1 %.not, label %9, label %37

9:                                                ; preds = %3
  %10 = trunc i64 %1 to i32
  %.not6 = icmp eq i32 %10, 0
  br i1 %.not6, label %_ZNK4llvm16AArch64InstrInfo21isLegalAddressingModeEjlj.exit.thread, label %_ZNK4llvm16AArch64InstrInfo21isLegalAddressingModeEjlj.exit

_ZNK4llvm16AArch64InstrInfo21isLegalAddressingModeEjlj.exit: ; preds = %9
  %11 = getelementptr inbounds nuw i8, ptr %0, i64 16
  %12 = load ptr, ptr %11, align 8
  %13 = load i32, ptr %12, align 4
  %14 = icmp eq i32 %10, 1
  %15 = icmp eq i32 %13, %10
  %spec.select.i = or i1 %14, %15
  br i1 %spec.select.i, label %_ZNK4llvm16AArch64InstrInfo21isLegalAddressingModeEjlj.exit.thread, label %37

_ZNK4llvm16AArch64InstrInfo21isLegalAddressingModeEjlj.exit.thread: ; preds = %9, %_ZNK4llvm16AArch64InstrInfo21isLegalAddressingModeEjlj.exit
  %16 = getelementptr inbounds nuw i8, ptr %0, i64 32
  %17 = load ptr, ptr %16, align 8
  %18 = getelementptr inbounds nuw i8, ptr %17, i64 32
  %19 = load ptr, ptr %18, align 8
  %20 = getelementptr inbounds i8, ptr %19, i64 36
  %21 = load i32, ptr %20, align 4
  %22 = getelementptr inbounds nuw i8, ptr %0, i64 24
  %23 = load ptr, ptr %22, align 8
  store i32 %21, ptr %23, align 8
  %24 = load ptr, ptr %16, align 8
  %25 = getelementptr inbounds nuw i8, ptr %24, i64 32
  %26 = load ptr, ptr %25, align 8
  %27 = getelementptr inbounds i8, ptr %26, i64 68
  %28 = load i32, ptr %27, align 4
  %29 = load ptr, ptr %22, align 8
  %30 = getelementptr inbounds nuw i8, ptr %29, i64 4
  store i32 %28, ptr %30, align 4
  %31 = load ptr, ptr %22, align 8
  %32 = getelementptr inbounds nuw i8, ptr %31, i64 8
  store i64 %1, ptr %32, align 8
  %33 = load ptr, ptr %22, align 8
  %34 = getelementptr inbounds nuw i8, ptr %33, i64 16
  store i64 0, ptr %34, align 8
  %35 = load ptr, ptr %22, align 8
  %36 = getelementptr inbounds nuw i8, ptr %35, i64 24
  store i32 %2, ptr %36, align 8
  br label %37

37:                                               ; preds = %_ZNK4llvm16AArch64InstrInfo21isLegalAddressingModeEjlj.exit, %3, %_ZNK4llvm16AArch64InstrInfo21isLegalAddressingModeEjlj.exit.thread
  %.0 = phi i1 [ true, %_ZNK4llvm16AArch64InstrInfo21isLegalAddressingModeEjlj.exit.thread ], [ false, %3 ], [ false, %_ZNK4llvm16AArch64InstrInfo21isLegalAddressingModeEjlj.exit ]
  ret i1 %.0
}